; Function Attrs: mustprogress nounwind uwtable
define dso_local i64 @_ZN4node13SpinEventLoopEPNS_11EnvironmentE(ptr noundef %env) local_unnamed_addr #3 {
entry:
  %call = tail call i64 @_ZN4node21SpinEventLoopInternalEPNS_11EnvironmentE(ptr noundef %env)
  %result.sroa.32.0.extract.shift = and i64 %call, -4294967296
  %0 = and i64 %call, 1
  %tobool.i.not = icmp eq i64 %0, 0
  %retval.sroa.0.0.insert.insert.i = or disjoint i64 %result.sroa.32.0.extract.shift, 1
  %retval.sroa.0.0 = select i1 %tobool.i.not, i64 0, i64 %retval.sroa.0.0.insert.insert.i
  ret i64 %retval.sroa.0.0
}